target datalayout = "e-m:e-p270:32:32-p271:32:32-p272:64:64-i64:64-i128:128-f80:128-n8:16:32:64-S128"
target triple = "x86_64-pc-linux-gnu"

%struct.evp_aead_ctx_st = type { ptr, ptr }
%struct.AEAD_SSL3_CTX = type { %struct.evp_cipher_ctx_st, %struct.env_md_ctx_st }
%struct.evp_cipher_ctx_st = type { ptr, ptr, ptr, i32, i32, i32, [16 x i8], [16 x i8], [32 x i8], i32, i32, i32, i32, [32 x i8] }
%struct.env_md_ctx_st = type { ptr, ptr, ptr, ptr }

@.str = private unnamed_addr constant [126 x i8] c"generated/home/dtcxzyw/WorkSpace/Projects/compilers/llvm-opt-benchmark/bench/libquic/libquic/boringssl/crypto/cipher/e_ssl3.c\00", align 1

; Function Attrs: nounwind uwtable
define internal i32 @aead_ssl3_open(ptr noundef %0, ptr noundef %1, ptr noundef %2, i64 noundef %3, ptr noundef %4, i64 noundef %5, ptr noundef %6, i64 noundef %7, ptr noundef %8, i64 noundef %9) #0 {
  %11 = alloca i32, align 4
  %12 = alloca ptr, align 8
  %13 = alloca ptr, align 8
  %14 = alloca ptr, align 8
  %15 = alloca i64, align 8
  %16 = alloca ptr, align 8
  %17 = alloca i64, align 8
  %18 = alloca ptr, align 8
  %19 = alloca i64, align 8
  %20 = alloca ptr, align 8
  %21 = alloca i64, align 8
  %22 = alloca ptr, align 8
  %23 = alloca i32, align 4
  %24 = alloca i64, align 8
  %25 = alloca i64, align 8
  %26 = alloca i32, align 4
  %27 = alloca i32, align 4
  %28 = alloca i32, align 4
  %29 = alloca [64 x i8], align 16
  store ptr %0, ptr %12, align 8, !tbaa !6
  store ptr %1, ptr %13, align 8, !tbaa !11
  store ptr %2, ptr %14, align 8, !tbaa !21
  store i64 %3, ptr %15, align 8, !tbaa !13
  store ptr %4, ptr %16, align 8, !tbaa !11
  store i64 %5, ptr %17, align 8, !tbaa !13
  store ptr %6, ptr %18, align 8, !tbaa !11
  store i64 %7, ptr %19, align 8, !tbaa !13
  store ptr %8, ptr %20, align 8, !tbaa !11
  store i64 %9, ptr %21, align 8, !tbaa !13
  call void @llvm.lifetime.start.p0(i64 8, ptr %22) #6
  %30 = load ptr, ptr %12, align 8, !tbaa !6
  %31 = getelementptr inbounds nuw %struct.evp_aead_ctx_st, ptr %30, i32 0, i32 1
  %32 = load ptr, ptr %31, align 8, !tbaa !17
  store ptr %32, ptr %22, align 8, !tbaa !20
  %33 = load ptr, ptr %22, align 8, !tbaa !20
  %34 = getelementptr inbounds nuw %struct.AEAD_SSL3_CTX, ptr %33, i32 0, i32 0
  %35 = getelementptr inbounds nuw %struct.evp_cipher_ctx_st, ptr %34, i32 0, i32 4
  %36 = load i32, ptr %35, align 4, !tbaa !23
  %37 = icmp ne i32 %36, 0
  br i1 %37, label %38, label %39

38:                                               ; preds = %10
  call void @ERR_put_error(i32 noundef 30, i32 noundef 0, i32 noundef 112, ptr noundef @.str, i32 noundef 220)
  store i32 0, ptr %11, align 4
  store i32 1, ptr %23, align 4
  br label %165

39:                                               ; preds = %10
  call void @llvm.lifetime.start.p0(i64 8, ptr %24) #6
  %40 = load ptr, ptr %22, align 8, !tbaa !20
  %41 = getelementptr inbounds nuw %struct.AEAD_SSL3_CTX, ptr %40, i32 0, i32 1
  %42 = call i64 @EVP_MD_CTX_size(ptr noundef %41)
  store i64 %42, ptr %24, align 8, !tbaa !13
  %43 = load i64, ptr %19, align 8, !tbaa !13
  %44 = load i64, ptr %24, align 8, !tbaa !13
  %45 = icmp ult i64 %43, %44
  br i1 %45, label %46, label %47

46:                                               ; preds = %39
  call void @ERR_put_error(i32 noundef 30, i32 noundef 0, i32 noundef 101, ptr noundef @.str, i32 noundef 226)
  store i32 0, ptr %11, align 4
  store i32 1, ptr %23, align 4
  br label %164

47:                                               ; preds = %39
  %48 = load i64, ptr %15, align 8, !tbaa !13
  %49 = load i64, ptr %19, align 8, !tbaa !13
  %50 = icmp ult i64 %48, %49
  br i1 %50, label %51, label %52

51:                                               ; preds = %47
  call void @ERR_put_error(i32 noundef 30, i32 noundef 0, i32 noundef 103, ptr noundef @.str, i32 noundef 233)
  store i32 0, ptr %11, align 4
  store i32 1, ptr %23, align 4
  br label %164

52:                                               ; preds = %47
  %53 = load i64, ptr %17, align 8, !tbaa !13
  %54 = icmp ne i64 %53, 0
  br i1 %54, label %55, label %56

55:                                               ; preds = %52
  call void @ERR_put_error(i32 noundef 30, i32 noundef 0, i32 noundef 117, ptr noundef @.str, i32 noundef 238)
  store i32 0, ptr %11, align 4
  store i32 1, ptr %23, align 4
  br label %164

56:                                               ; preds = %52
  %57 = load i64, ptr %21, align 8, !tbaa !13
  %58 = icmp ne i64 %57, 9
  br i1 %58, label %59, label %60

59:                                               ; preds = %56
  call void @ERR_put_error(i32 noundef 30, i32 noundef 0, i32 noundef 109, ptr noundef @.str, i32 noundef 243)
  store i32 0, ptr %11, align 4
  store i32 1, ptr %23, align 4
  br label %164

60:                                               ; preds = %56
  %61 = load i64, ptr %19, align 8, !tbaa !13
  %62 = icmp ugt i64 %61, 2147483647
  br i1 %62, label %63, label %64

63:                                               ; preds = %60
  call void @ERR_put_error(i32 noundef 30, i32 noundef 0, i32 noundef 117, ptr noundef @.str, i32 noundef 249)
  store i32 0, ptr %11, align 4
  store i32 1, ptr %23, align 4
  br label %164

64:                                               ; preds = %60
  call void @llvm.lifetime.start.p0(i64 8, ptr %25) #6
  store i64 0, ptr %25, align 8, !tbaa !13
  call void @llvm.lifetime.start.p0(i64 4, ptr %26) #6
  %65 = load ptr, ptr %22, align 8, !tbaa !20
  %66 = getelementptr inbounds nuw %struct.AEAD_SSL3_CTX, ptr %65, i32 0, i32 0
  %67 = load ptr, ptr %13, align 8, !tbaa !11
  %68 = load ptr, ptr %18, align 8, !tbaa !11
  %69 = load i64, ptr %19, align 8, !tbaa !13
  %70 = trunc i64 %69 to i32
  %71 = call i32 @EVP_DecryptUpdate(ptr noundef %66, ptr noundef %67, ptr noundef %26, ptr noundef %68, i32 noundef %70)
  %72 = icmp ne i32 %71, 0
  br i1 %72, label %74, label %73

73:                                               ; preds = %64
  store i32 0, ptr %11, align 4
  store i32 1, ptr %23, align 4
  br label %163

74:                                               ; preds = %64
  %75 = load i32, ptr %26, align 4, !tbaa !15
  %76 = sext i32 %75 to i64
  %77 = load i64, ptr %25, align 8, !tbaa !13
  %78 = add i64 %77, %76
  store i64 %78, ptr %25, align 8, !tbaa !13
  %79 = load ptr, ptr %22, align 8, !tbaa !20
  %80 = getelementptr inbounds nuw %struct.AEAD_SSL3_CTX, ptr %79, i32 0, i32 0
  %81 = load ptr, ptr %13, align 8, !tbaa !11
  %82 = load i64, ptr %25, align 8, !tbaa !13
  %83 = getelementptr inbounds nuw i8, ptr %81, i64 %82
  %84 = call i32 @EVP_DecryptFinal_ex(ptr noundef %80, ptr noundef %83, ptr noundef %26)
  %85 = icmp ne i32 %84, 0
  br i1 %85, label %87, label %86

86:                                               ; preds = %74
  store i32 0, ptr %11, align 4
  store i32 1, ptr %23, align 4
  br label %163

87:                                               ; preds = %74
  %88 = load i32, ptr %26, align 4, !tbaa !15
  %89 = sext i32 %88 to i64
  %90 = load i64, ptr %25, align 8, !tbaa !13
  %91 = add i64 %90, %89
  store i64 %91, ptr %25, align 8, !tbaa !13
  call void @llvm.lifetime.start.p0(i64 4, ptr %27) #6
  %92 = load ptr, ptr %22, align 8, !tbaa !20
  %93 = getelementptr inbounds nuw %struct.AEAD_SSL3_CTX, ptr %92, i32 0, i32 0
  %94 = call i32 @EVP_CIPHER_CTX_mode(ptr noundef %93)
  %95 = icmp eq i32 %94, 2
  br i1 %95, label %96, label %131

96:                                               ; preds = %87
  call void @llvm.lifetime.start.p0(i64 4, ptr %28) #6
  %97 = load ptr, ptr %13, align 8, !tbaa !11
  %98 = load i64, ptr %25, align 8, !tbaa !13
  %99 = sub i64 %98, 1
  %100 = getelementptr inbounds nuw i8, ptr %97, i64 %99
  %101 = load i8, ptr %100, align 1, !tbaa !32
  %102 = zext i8 %101 to i32
  store i32 %102, ptr %28, align 4, !tbaa !15
  %103 = load i64, ptr %25, align 8, !tbaa !13
  %104 = load i32, ptr %28, align 4, !tbaa !15
  %105 = add i32 %104, 1
  %106 = zext i32 %105 to i64
  %107 = load i64, ptr %24, align 8, !tbaa !13
  %108 = add i64 %106, %107
  %109 = icmp ult i64 %103, %108
  br i1 %109, label %110, label %111

110:                                              ; preds = %96
  call void @ERR_put_error(i32 noundef 30, i32 noundef 0, i32 noundef 101, ptr noundef @.str, i32 noundef 273)
  store i32 0, ptr %11, align 4
  store i32 1, ptr %23, align 4
  br label %128

111:                                              ; preds = %96
  %112 = load i32, ptr %28, align 4, !tbaa !15
  %113 = add i32 %112, 1
  %114 = load ptr, ptr %22, align 8, !tbaa !20
  %115 = getelementptr inbounds nuw %struct.AEAD_SSL3_CTX, ptr %114, i32 0, i32 0
  %116 = call i32 @EVP_CIPHER_CTX_block_size(ptr noundef %115)
  %117 = icmp ugt i32 %113, %116
  br i1 %117, label %118, label %119

118:                                              ; preds = %111
  call void @ERR_put_error(i32 noundef 30, i32 noundef 0, i32 noundef 101, ptr noundef @.str, i32 noundef 278)
  store i32 0, ptr %11, align 4
  store i32 1, ptr %23, align 4
  br label %128

119:                                              ; preds = %111
  %120 = load i64, ptr %25, align 8, !tbaa !13
  %121 = load i32, ptr %28, align 4, !tbaa !15
  %122 = zext i32 %121 to i64
  %123 = sub i64 %120, %122
  %124 = sub i64 %123, 1
  %125 = load i64, ptr %24, align 8, !tbaa !13
  %126 = sub i64 %124, %125
  %127 = trunc i64 %126 to i32
  store i32 %127, ptr %27, align 4, !tbaa !15
  store i32 0, ptr %23, align 4
  br label %128

128:                                              ; preds = %119, %118, %110
  call void @llvm.lifetime.end.p0(i64 4, ptr %28) #6
  %129 = load i32, ptr %23, align 4
  switch i32 %129, label %162 [
    i32 0, label %130
  ]

130:                                              ; preds = %128
  br label %136

131:                                              ; preds = %87
  %132 = load i64, ptr %25, align 8, !tbaa !13
  %133 = load i64, ptr %24, align 8, !tbaa !13
  %134 = sub i64 %132, %133
  %135 = trunc i64 %134 to i32
  store i32 %135, ptr %27, align 4, !tbaa !15
  br label %136

136:                                              ; preds = %131, %130
  call void @llvm.lifetime.start.p0(i64 64, ptr %29) #6
  %137 = load ptr, ptr %22, align 8, !tbaa !20
  %138 = getelementptr inbounds [64 x i8], ptr %29, i64 0, i64 0
  %139 = load ptr, ptr %20, align 8, !tbaa !11
  %140 = load i64, ptr %21, align 8, !tbaa !13
  %141 = load ptr, ptr %13, align 8, !tbaa !11
  %142 = load i32, ptr %27, align 4, !tbaa !15
  %143 = zext i32 %142 to i64
  %144 = call i32 @ssl3_mac(ptr noundef %137, ptr noundef %138, ptr noundef null, ptr noundef %139, i64 noundef %140, ptr noundef %141, i64 noundef %143)
  %145 = icmp ne i32 %144, 0
  br i1 %145, label %147, label %146

146:                                              ; preds = %136
  store i32 0, ptr %11, align 4
  store i32 1, ptr %23, align 4
  br label %161

147:                                              ; preds = %136
  %148 = load ptr, ptr %13, align 8, !tbaa !11
  %149 = load i32, ptr %27, align 4, !tbaa !15
  %150 = zext i32 %149 to i64
  %151 = getelementptr inbounds nuw i8, ptr %148, i64 %150
  %152 = getelementptr inbounds [64 x i8], ptr %29, i64 0, i64 0
  %153 = load i64, ptr %24, align 8, !tbaa !13
  %154 = call i32 @CRYPTO_memcmp(ptr noundef %151, ptr noundef %152, i64 noundef %153)
  %155 = icmp ne i32 %154, 0
  br i1 %155, label %156, label %157

156:                                              ; preds = %147
  call void @ERR_put_error(i32 noundef 30, i32 noundef 0, i32 noundef 101, ptr noundef @.str, i32 noundef 292)
  store i32 0, ptr %11, align 4
  store i32 1, ptr %23, align 4
  br label %161

157:                                              ; preds = %147
  %158 = load i32, ptr %27, align 4, !tbaa !15
  %159 = zext i32 %158 to i64
  %160 = load ptr, ptr %14, align 8, !tbaa !21
  store i64 %159, ptr %160, align 8, !tbaa !13
  store i32 1, ptr %11, align 4
  store i32 1, ptr %23, align 4
  br label %161

161:                                              ; preds = %157, %156, %146
  call void @llvm.lifetime.end.p0(i64 64, ptr %29) #6
  br label %162

162:                                              ; preds = %161, %128
  call void @llvm.lifetime.end.p0(i64 4, ptr %27) #6
  br label %163

163:                                              ; preds = %162, %86, %73
  call void @llvm.lifetime.end.p0(i64 4, ptr %26) #6
  call void @llvm.lifetime.end.p0(i64 8, ptr %25) #6
  br label %164

164:                                              ; preds = %163, %63, %59, %55, %51, %46
  call void @llvm.lifetime.end.p0(i64 8, ptr %24) #6
  br label %165

165:                                              ; preds = %164, %38
  call void @llvm.lifetime.end.p0(i64 8, ptr %22) #6
  %166 = load i32, ptr %11, align 4
  ret i32 %166
}