; Function Attrs: nounwind uwtable
define internal range(i32 0, 2) i32 @aead_ssl3_open(ptr noundef readonly captures(none) %0, ptr noundef %1, ptr noundef writeonly captures(none) %2, i64 noundef %3, ptr readnone captures(none) %4, i64 noundef %5, ptr noundef %6, i64 noundef %7, ptr noundef %8, i64 noundef %9) #1 {
  %11 = alloca i32, align 4
  %12 = alloca [64 x i8], align 16
  %13 = getelementptr inbounds nuw i8, ptr %0, i64 8
  %14 = load ptr, ptr %13, align 8, !tbaa !6
  %15 = getelementptr inbounds nuw i8, ptr %14, i64 28
  %16 = load i32, ptr %15, align 4, !tbaa !12
  %.not = icmp eq i32 %16, 0
  br i1 %.not, label %18, label %17

17:                                               ; preds = %10
  tail call void @ERR_put_error(i32 noundef 30, i32 noundef 0, i32 noundef 112, ptr noundef nonnull @.str, i32 noundef 220) #7
  br label %73

18:                                               ; preds = %10
  %19 = getelementptr inbounds nuw i8, ptr %14, i64 152
  %20 = tail call i64 @EVP_MD_CTX_size(ptr noundef nonnull %19) #7
  %21 = icmp ult i64 %7, %20
  br i1 %21, label %22, label %23

22:                                               ; preds = %18
  tail call void @ERR_put_error(i32 noundef 30, i32 noundef 0, i32 noundef 101, ptr noundef nonnull @.str, i32 noundef 226) #7
  br label %73

23:                                               ; preds = %18
  %24 = icmp ult i64 %3, %7
  br i1 %24, label %25, label %26

25:                                               ; preds = %23
  tail call void @ERR_put_error(i32 noundef 30, i32 noundef 0, i32 noundef 103, ptr noundef nonnull @.str, i32 noundef 233) #7
  br label %73

26:                                               ; preds = %23
  %.not50 = icmp eq i64 %5, 0
  br i1 %.not50, label %28, label %27

27:                                               ; preds = %26
  tail call void @ERR_put_error(i32 noundef 30, i32 noundef 0, i32 noundef 117, ptr noundef nonnull @.str, i32 noundef 238) #7
  br label %73

28:                                               ; preds = %26
  %.not51 = icmp eq i64 %9, 9
  br i1 %.not51, label %30, label %29

29:                                               ; preds = %28
  tail call void @ERR_put_error(i32 noundef 30, i32 noundef 0, i32 noundef 109, ptr noundef nonnull @.str, i32 noundef 243) #7
  br label %73

30:                                               ; preds = %28
  %31 = icmp ugt i64 %7, 2147483647
  br i1 %31, label %32, label %33

32:                                               ; preds = %30
  tail call void @ERR_put_error(i32 noundef 30, i32 noundef 0, i32 noundef 117, ptr noundef nonnull @.str, i32 noundef 249) #7
  br label %73

33:                                               ; preds = %30
  call void @llvm.lifetime.start.p0(i64 4, ptr nonnull %11) #7
  %34 = trunc nuw nsw i64 %7 to i32
  %35 = call i32 @EVP_DecryptUpdate(ptr noundef nonnull %14, ptr noundef %1, ptr noundef nonnull %11, ptr noundef %6, i32 noundef %34) #7
  %.not52 = icmp eq i32 %35, 0
  br i1 %.not52, label %.thread, label %36

36:                                               ; preds = %33
  %37 = load i32, ptr %11, align 4, !tbaa !22
  %38 = sext i32 %37 to i64
  %39 = getelementptr inbounds nuw i8, ptr %1, i64 %38
  %40 = call i32 @EVP_DecryptFinal_ex(ptr noundef nonnull %14, ptr noundef %39, ptr noundef nonnull %11) #7
  %.not53 = icmp eq i32 %40, 0
  br i1 %.not53, label %.thread, label %41

41:                                               ; preds = %36
  %42 = load i32, ptr %11, align 4, !tbaa !22
  %43 = sext i32 %42 to i64
  %44 = add nsw i64 %43, %38
  %45 = call i32 @EVP_CIPHER_CTX_mode(ptr noundef nonnull %14) #7
  %46 = icmp eq i32 %45, 2
  br i1 %46, label %47, label %64

47:                                               ; preds = %41
  %48 = getelementptr i8, ptr %1, i64 %44
  %49 = getelementptr i8, ptr %48, i64 -1
  %50 = load i8, ptr %49, align 1, !tbaa !23
  %51 = zext i8 %50 to i32
  %52 = add nuw nsw i32 %51, 1
  %53 = zext nneg i32 %52 to i64
  %54 = add i64 %20, %53
  %55 = icmp ult i64 %44, %54
  br i1 %55, label %56, label %57

56:                                               ; preds = %47
  call void @ERR_put_error(i32 noundef 30, i32 noundef 0, i32 noundef 101, ptr noundef nonnull @.str, i32 noundef 273) #7
  br label %.thread

57:                                               ; preds = %47
  %58 = call i32 @EVP_CIPHER_CTX_block_size(ptr noundef nonnull %14) #7
  %.not54 = icmp ugt i32 %58, %51
  br i1 %.not54, label %60, label %59

59:                                               ; preds = %57
  call void @ERR_put_error(i32 noundef 30, i32 noundef 0, i32 noundef 101, ptr noundef nonnull @.str, i32 noundef 278) #7
  br label %.thread

60:                                               ; preds = %57
  %61 = zext i8 %50 to i64
  %62 = xor i64 %61, -1
  %63 = add nsw i64 %44, %62
  br label %64

64:                                               ; preds = %41, %60
  %.pn = phi i64 [ %63, %60 ], [ %44, %41 ]
  %.144 = sub i64 %.pn, %20
  call void @llvm.lifetime.start.p0(i64 64, ptr nonnull %12) #7
  %65 = and i64 %.144, 4294967295
  %66 = call fastcc i32 @ssl3_mac(ptr noundef nonnull %14, ptr noundef %12, ptr noundef null, ptr noundef %8, ptr noundef %1, i64 noundef %65)
  %.not55 = icmp eq i32 %66, 0
  br i1 %.not55, label %72, label %67

67:                                               ; preds = %64
  %68 = getelementptr inbounds nuw i8, ptr %1, i64 %65
  %69 = call i32 @CRYPTO_memcmp(ptr noundef %68, ptr noundef nonnull %12, i64 noundef %20) #7
  %.not56 = icmp eq i32 %69, 0
  br i1 %.not56, label %71, label %70

70:                                               ; preds = %67
  call void @ERR_put_error(i32 noundef 30, i32 noundef 0, i32 noundef 101, ptr noundef nonnull @.str, i32 noundef 292) #7
  br label %72

71:                                               ; preds = %67
  store i64 %65, ptr %2, align 8, !tbaa !24
  br label %72

72:                                               ; preds = %64, %71, %70
  %.5 = phi i32 [ 0, %70 ], [ 1, %71 ], [ 0, %64 ]
  call void @llvm.lifetime.end.p0(i64 64, ptr nonnull %12) #7
  br label %.thread

.thread:                                          ; preds = %59, %56, %72, %36, %33
  %.2 = phi i32 [ 0, %33 ], [ 0, %36 ], [ %.5, %72 ], [ 0, %56 ], [ 0, %59 ]
  call void @llvm.lifetime.end.p0(i64 4, ptr nonnull %11) #7
  br label %73

73:                                               ; preds = %22, %25, %27, %29, %32, %.thread, %17
  %.0 = phi i32 [ 0, %17 ], [ 0, %22 ], [ 0, %25 ], [ 0, %27 ], [ 0, %29 ], [ 0, %32 ], [ %.2, %.thread ]
  ret i32 %.0
}